; Function Attrs: mustprogress nounwind uwtable
define internal noundef zeroext i1 @_ZN4llvm20MCAsmParserExtension15HandleDirectiveIN12_GLOBAL__N_113WasmAsmParserETnMT_FbNS_9StringRefENS_5SMLocEEXadL_ZNS3_18parseDirectiveTypeES5_S6_EEEEbPS0_S5_S6_(ptr nocapture noundef readonly %0, ptr nocapture readnone %1, i64 %2, ptr nocapture readnone %3) #0 align 2 {
  %5 = alloca %"class.llvm::Twine", align 8
  %6 = alloca %"class.llvm::Twine", align 8
  %7 = alloca %"class.llvm::Twine", align 8
  %8 = alloca %"class.llvm::Twine", align 8
  call void @llvm.lifetime.start.p0(i64 40, ptr nonnull %8)
  %9 = getelementptr inbounds nuw i8, ptr %0, i64 32
  %10 = load ptr, ptr %9, align 8
  %11 = getelementptr inbounds nuw i8, ptr %10, i64 8
  %12 = load ptr, ptr %11, align 8
  %13 = load i32, ptr %12, align 8
  %14 = icmp eq i32 %13, 2
  br i1 %14, label %23, label %15

15:                                               ; preds = %4
  %16 = getelementptr inbounds i8, ptr %0, i64 24
  %.val21.i = load ptr, ptr %16, align 8
  call void @llvm.lifetime.start.p0(i64 40, ptr nonnull %7)
  %17 = tail call ptr @_ZNK4llvm8AsmToken6getLocEv(ptr noundef nonnull align 8 dereferenceable(40) %12) #13
  %18 = getelementptr inbounds nuw i8, ptr %12, i64 8
  %.sroa.0.0.copyload.i.i.i = load ptr, ptr %18, align 8
  %.sroa.2.0..sroa_idx.i.i.i = getelementptr inbounds i8, ptr %12, i64 16
  %.sroa.2.0.copyload.i.i.i = load i64, ptr %.sroa.2.0..sroa_idx.i.i.i, align 8
  store ptr @.str.35, ptr %7, align 8, !alias.scope !28
  %.sroa.23.0..sroa_idx.i.i.i.i.i = getelementptr inbounds i8, ptr %7, i64 8
  store i64 43, ptr %.sroa.23.0..sroa_idx.i.i.i.i.i, align 8, !alias.scope !28
  %19 = getelementptr inbounds nuw i8, ptr %7, i64 16
  store ptr %.sroa.0.0.copyload.i.i.i, ptr %19, align 8, !alias.scope !28
  %.sroa.2.0..sroa_idx.i.i.i.i.i = getelementptr inbounds i8, ptr %7, i64 24
  store i64 %.sroa.2.0.copyload.i.i.i, ptr %.sroa.2.0..sroa_idx.i.i.i.i.i, align 8, !alias.scope !28
  %20 = getelementptr inbounds nuw i8, ptr %7, i64 32
  store i8 5, ptr %20, align 8, !alias.scope !28
  %21 = getelementptr inbounds nuw i8, ptr %7, i64 33
  store i8 5, ptr %21, align 1, !alias.scope !28
  %22 = call noundef zeroext i1 @_ZN4llvm11MCAsmParser5ErrorENS_5SMLocERKNS_5TwineENS_7SMRangeE(ptr noundef nonnull align 8 dereferenceable(34) %.val21.i, ptr %17, ptr noundef nonnull align 8 dereferenceable(34) %7, ptr null, ptr null) #13
  call void @llvm.lifetime.end.p0(i64 40, ptr nonnull %7)
  br label %_ZN12_GLOBAL__N_113WasmAsmParser18parseDirectiveTypeEN4llvm9StringRefENS1_5SMLocE.exit

23:                                               ; preds = %4
  %24 = getelementptr inbounds nuw i8, ptr %0, i64 8
  %25 = load ptr, ptr %24, align 8
  %26 = load ptr, ptr %25, align 8
  %27 = getelementptr inbounds i8, ptr %26, i64 56
  %28 = load ptr, ptr %27, align 8
  %29 = tail call noundef nonnull align 8 dereferenceable(288) ptr %28(ptr noundef nonnull align 8 dereferenceable(34) %25) #13
  %30 = getelementptr inbounds nuw i8, ptr %29, i64 8
  %31 = load ptr, ptr %30, align 8
  %32 = load ptr, ptr %9, align 8
  %33 = getelementptr inbounds nuw i8, ptr %32, i64 8
  %34 = load ptr, ptr %33, align 8
  %35 = getelementptr inbounds nuw i8, ptr %34, i64 8
  %.sroa.0.0.copyload.i.i = load ptr, ptr %35, align 8
  %.sroa.2.0..sroa_idx.i.i = getelementptr inbounds i8, ptr %34, i64 16
  %.sroa.2.0.copyload.i.i = load i64, ptr %.sroa.2.0..sroa_idx.i.i, align 8
  %36 = getelementptr inbounds nuw i8, ptr %8, i64 32
  store i8 5, ptr %36, align 8
  %37 = getelementptr inbounds nuw i8, ptr %8, i64 33
  store i8 1, ptr %37, align 1
  store ptr %.sroa.0.0.copyload.i.i, ptr %8, align 8
  %38 = getelementptr inbounds nuw i8, ptr %8, i64 8
  store i64 %.sroa.2.0.copyload.i.i, ptr %38, align 8
  %39 = call noundef ptr @_ZN4llvm9MCContext17getOrCreateSymbolERKNS_5TwineE(ptr noundef nonnull align 8 dereferenceable(2432) %31, ptr noundef nonnull align 8 dereferenceable(34) %8) #13
  %40 = load ptr, ptr %24, align 8
  %41 = load ptr, ptr %40, align 8
  %42 = getelementptr inbounds i8, ptr %41, i64 184
  %43 = load ptr, ptr %42, align 8
  %44 = call noundef nonnull align 8 dereferenceable(40) ptr %43(ptr noundef nonnull align 8 dereferenceable(34) %40) #13
  %.val18.i = load ptr, ptr %9, align 8
  %45 = getelementptr i8, ptr %.val18.i, i64 8
  %.val18.val.i = load ptr, ptr %45, align 8
  %.val18.val.val.i = load i32, ptr %.val18.val.i, align 8
  %46 = icmp eq i32 %.val18.val.val.i, 26
  br i1 %46, label %47, label %_ZN12_GLOBAL__N_113WasmAsmParser6isNextEN4llvm8AsmToken9TokenKindE.exit.i

47:                                               ; preds = %23
  %.val17.i = load ptr, ptr %24, align 8
  %48 = load ptr, ptr %.val17.i, align 8
  %49 = getelementptr inbounds i8, ptr %48, i64 184
  %50 = load ptr, ptr %49, align 8
  %51 = call noundef nonnull align 8 dereferenceable(40) ptr %50(ptr noundef nonnull align 8 dereferenceable(34) %.val17.i) #13
  %.val16.i = load ptr, ptr %9, align 8
  %52 = getelementptr i8, ptr %.val16.i, i64 8
  %.val16.val.i = load ptr, ptr %52, align 8
  %.val16.val.val.i = load i32, ptr %.val16.val.i, align 8
  %53 = icmp eq i32 %.val16.val.val.i, 46
  br i1 %53, label %54, label %_ZN12_GLOBAL__N_113WasmAsmParser6isNextEN4llvm8AsmToken9TokenKindE.exit.i

54:                                               ; preds = %47
  %.val.i = load ptr, ptr %24, align 8
  %55 = load ptr, ptr %.val.i, align 8
  %56 = getelementptr inbounds i8, ptr %55, i64 184
  %57 = load ptr, ptr %56, align 8
  %58 = call noundef nonnull align 8 dereferenceable(40) ptr %57(ptr noundef nonnull align 8 dereferenceable(34) %.val.i) #13
  %59 = load ptr, ptr %9, align 8
  %60 = getelementptr inbounds nuw i8, ptr %59, i64 8
  %61 = load ptr, ptr %60, align 8
  %62 = load i32, ptr %61, align 8
  %63 = icmp eq i32 %62, 2
  br i1 %63, label %72, label %_ZN12_GLOBAL__N_113WasmAsmParser6isNextEN4llvm8AsmToken9TokenKindE.exit.i

_ZN12_GLOBAL__N_113WasmAsmParser6isNextEN4llvm8AsmToken9TokenKindE.exit.i: ; preds = %54, %47, %23
  %64 = phi ptr [ %.val16.val.i, %47 ], [ %.val18.val.i, %23 ], [ %61, %54 ]
  %65 = getelementptr inbounds i8, ptr %0, i64 24
  %.val20.i = load ptr, ptr %65, align 8
  call void @llvm.lifetime.start.p0(i64 40, ptr nonnull %6)
  %66 = call ptr @_ZNK4llvm8AsmToken6getLocEv(ptr noundef nonnull align 8 dereferenceable(40) %64) #13
  %67 = getelementptr inbounds nuw i8, ptr %64, i64 8
  %.sroa.0.0.copyload.i.i23.i = load ptr, ptr %67, align 8
  %.sroa.2.0..sroa_idx.i.i24.i = getelementptr inbounds i8, ptr %64, i64 16
  %.sroa.2.0.copyload.i.i25.i = load i64, ptr %.sroa.2.0..sroa_idx.i.i24.i, align 8
  store ptr @.str.36, ptr %6, align 8, !alias.scope !33
  %.sroa.23.0..sroa_idx.i.i.i.i26.i = getelementptr inbounds i8, ptr %6, i64 8
  store i64 39, ptr %.sroa.23.0..sroa_idx.i.i.i.i26.i, align 8, !alias.scope !33
  %68 = getelementptr inbounds nuw i8, ptr %6, i64 16
  store ptr %.sroa.0.0.copyload.i.i23.i, ptr %68, align 8, !alias.scope !33
  %.sroa.2.0..sroa_idx.i.i.i.i27.i = getelementptr inbounds i8, ptr %6, i64 24
  store i64 %.sroa.2.0.copyload.i.i25.i, ptr %.sroa.2.0..sroa_idx.i.i.i.i27.i, align 8, !alias.scope !33
  %69 = getelementptr inbounds nuw i8, ptr %6, i64 32
  store i8 5, ptr %69, align 8, !alias.scope !33
  %70 = getelementptr inbounds nuw i8, ptr %6, i64 33
  store i8 5, ptr %70, align 1, !alias.scope !33
  %71 = call noundef zeroext i1 @_ZN4llvm11MCAsmParser5ErrorENS_5SMLocERKNS_5TwineENS_7SMRangeE(ptr noundef nonnull align 8 dereferenceable(34) %.val20.i, ptr %66, ptr noundef nonnull align 8 dereferenceable(34) %6, ptr null, ptr null) #13
  call void @llvm.lifetime.end.p0(i64 40, ptr nonnull %6)
  br label %_ZN12_GLOBAL__N_113WasmAsmParser18parseDirectiveTypeEN4llvm9StringRefENS1_5SMLocE.exit

72:                                               ; preds = %54
  %73 = getelementptr inbounds nuw i8, ptr %61, i64 8
  %.sroa.0.0.copyload.i28.i = load ptr, ptr %73, align 8
  %.sroa.2.0..sroa_idx.i29.i = getelementptr inbounds i8, ptr %61, i64 16
  %.sroa.2.0.copyload.i30.i = load i64, ptr %.sroa.2.0..sroa_idx.i29.i, align 8
  switch i64 %.sroa.2.0.copyload.i30.i, label %_ZN4llvmeqENS_9StringRefES0_.exit40.thread18.i [
    i64 8, label %_ZN4llvmeqENS_9StringRefES0_.exit.i
    i64 6, label %_ZN4llvmeqENS_9StringRefES0_.exit36.i
  ]

_ZN4llvmeqENS_9StringRefES0_.exit.i:              ; preds = %72
  %bcmp.i.i = call i32 @bcmp(ptr noundef nonnull dereferenceable(8) %.sroa.0.0.copyload.i28.i, ptr noundef nonnull dereferenceable(8) @.str.37, i64 8)
  %74 = icmp eq i32 %bcmp.i.i, 0
  br i1 %74, label %_ZN4llvmeqENS_9StringRefES0_.exit.thread.i, label %_ZN4llvmeqENS_9StringRefES0_.exit40.thread18.i

_ZN4llvmeqENS_9StringRefES0_.exit.thread.i:       ; preds = %_ZN4llvmeqENS_9StringRefES0_.exit.i
  %75 = getelementptr inbounds nuw i8, ptr %39, i64 32
  store i64 4294967296, ptr %75, align 8
  %76 = load ptr, ptr %24, align 8
  %77 = load ptr, ptr %76, align 8
  %78 = getelementptr inbounds i8, ptr %77, i64 56
  %79 = load ptr, ptr %78, align 8
  %80 = call noundef nonnull align 8 dereferenceable(288) ptr %79(ptr noundef nonnull align 8 dereferenceable(34) %76) #13
  %81 = getelementptr inbounds nuw i8, ptr %80, i64 280
  %82 = load ptr, ptr %81, align 8
  %83 = getelementptr inbounds nuw i8, ptr %82, i64 8
  %84 = load ptr, ptr %83, align 8
  %85 = getelementptr inbounds nuw i8, ptr %84, i64 152
  %86 = load ptr, ptr %85, align 8
  %.not.i = icmp eq ptr %86, null
  br i1 %.not.i, label %99, label %87

87:                                               ; preds = %_ZN4llvmeqENS_9StringRefES0_.exit.thread.i
  %88 = getelementptr inbounds nuw i8, ptr %39, i64 42
  store i8 1, ptr %88, align 2
  br label %99

_ZN4llvmeqENS_9StringRefES0_.exit36.i:            ; preds = %72
  %bcmp.i35.i = call i32 @bcmp(ptr noundef nonnull dereferenceable(6) %.sroa.0.0.copyload.i28.i, ptr noundef nonnull dereferenceable(6) @.str.38, i64 6)
  %89 = icmp eq i32 %bcmp.i35.i, 0
  br i1 %89, label %_ZN4llvmeqENS_9StringRefES0_.exit36.thread.i, label %_ZN4llvmeqENS_9StringRefES0_.exit40.i

_ZN4llvmeqENS_9StringRefES0_.exit36.thread.i:     ; preds = %_ZN4llvmeqENS_9StringRefES0_.exit36.i
  %90 = getelementptr inbounds nuw i8, ptr %39, i64 32
  store i64 4294967298, ptr %90, align 8
  br label %99

_ZN4llvmeqENS_9StringRefES0_.exit40.i:            ; preds = %_ZN4llvmeqENS_9StringRefES0_.exit36.i
  %bcmp.i39.i = call i32 @bcmp(ptr noundef nonnull dereferenceable(6) %.sroa.0.0.copyload.i28.i, ptr noundef nonnull dereferenceable(6) @.str.39, i64 6)
  %91 = icmp eq i32 %bcmp.i39.i, 0
  br i1 %91, label %_ZN4llvmeqENS_9StringRefES0_.exit40.thread.i, label %_ZN4llvmeqENS_9StringRefES0_.exit40.thread18.i

_ZN4llvmeqENS_9StringRefES0_.exit40.thread.i:     ; preds = %_ZN4llvmeqENS_9StringRefES0_.exit40.i
  %92 = getelementptr inbounds nuw i8, ptr %39, i64 32
  store i64 4294967297, ptr %92, align 8
  br label %99

_ZN4llvmeqENS_9StringRefES0_.exit40.thread18.i:   ; preds = %_ZN4llvmeqENS_9StringRefES0_.exit40.i, %_ZN4llvmeqENS_9StringRefES0_.exit.i, %72
  %93 = getelementptr inbounds i8, ptr %0, i64 24
  %.val19.i = load ptr, ptr %93, align 8
  call void @llvm.lifetime.start.p0(i64 40, ptr nonnull %5)
  %94 = call ptr @_ZNK4llvm8AsmToken6getLocEv(ptr noundef nonnull align 8 dereferenceable(40) %61) #13
  %.sroa.0.0.copyload.i.i6 = load ptr, ptr %73, align 8
  %.sroa.2.0.copyload.i.i8 = load i64, ptr %.sroa.2.0..sroa_idx.i29.i, align 8
  store ptr @.str.40, ptr %5, align 8, !alias.scope !38
  %.sroa.23.0..sroa_idx.i.i.i.i = getelementptr inbounds i8, ptr %5, i64 8
  store i64 26, ptr %.sroa.23.0..sroa_idx.i.i.i.i, align 8, !alias.scope !38
  %95 = getelementptr inbounds nuw i8, ptr %5, i64 16
  store ptr %.sroa.0.0.copyload.i.i6, ptr %95, align 8, !alias.scope !38
  %.sroa.2.0..sroa_idx.i.i.i.i = getelementptr inbounds i8, ptr %5, i64 24
  store i64 %.sroa.2.0.copyload.i.i8, ptr %.sroa.2.0..sroa_idx.i.i.i.i, align 8, !alias.scope !38
  %96 = getelementptr inbounds nuw i8, ptr %5, i64 32
  store i8 5, ptr %96, align 8, !alias.scope !38
  %97 = getelementptr inbounds nuw i8, ptr %5, i64 33
  store i8 5, ptr %97, align 1, !alias.scope !38
  %98 = call noundef zeroext i1 @_ZN4llvm11MCAsmParser5ErrorENS_5SMLocERKNS_5TwineENS_7SMRangeE(ptr noundef nonnull align 8 dereferenceable(34) %.val19.i, ptr %94, ptr noundef nonnull align 8 dereferenceable(34) %5, ptr null, ptr null) #13
  call void @llvm.lifetime.end.p0(i64 40, ptr nonnull %5)
  br label %_ZN12_GLOBAL__N_113WasmAsmParser18parseDirectiveTypeEN4llvm9StringRefENS1_5SMLocE.exit

99:                                               ; preds = %_ZN4llvmeqENS_9StringRefES0_.exit40.thread.i, %_ZN4llvmeqENS_9StringRefES0_.exit36.thread.i, %87, %_ZN4llvmeqENS_9StringRefES0_.exit.thread.i
  %100 = load ptr, ptr %24, align 8
  %101 = load ptr, ptr %100, align 8
  %102 = getelementptr inbounds i8, ptr %101, i64 184
  %103 = load ptr, ptr %102, align 8
  %104 = call noundef nonnull align 8 dereferenceable(40) ptr %103(ptr noundef nonnull align 8 dereferenceable(34) %100) #13
  %105 = call fastcc noundef zeroext i1 @_ZN12_GLOBAL__N_113WasmAsmParser6expectEN4llvm8AsmToken9TokenKindEPKc(ptr noundef nonnull readonly align 8 dereferenceable(40) %0, i32 noundef 9, ptr noundef nonnull @.str.41)
  br label %_ZN12_GLOBAL__N_113WasmAsmParser18parseDirectiveTypeEN4llvm9StringRefENS1_5SMLocE.exit

_ZN12_GLOBAL__N_113WasmAsmParser18parseDirectiveTypeEN4llvm9StringRefENS1_5SMLocE.exit: ; preds = %15, %_ZN12_GLOBAL__N_113WasmAsmParser6isNextEN4llvm8AsmToken9TokenKindE.exit.i, %_ZN4llvmeqENS_9StringRefES0_.exit40.thread18.i, %99
  %.0.i = phi i1 [ %105, %99 ], [ %98, %_ZN4llvmeqENS_9StringRefES0_.exit40.thread18.i ], [ %71, %_ZN12_GLOBAL__N_113WasmAsmParser6isNextEN4llvm8AsmToken9TokenKindE.exit.i ], [ %22, %15 ]
  call void @llvm.lifetime.end.p0(i64 40, ptr nonnull %8)
  ret i1 %.0.i
}